; Function Attrs: null_pointer_is_valid sspstrong uwtable
define internal fastcc i32 @dissect_rsl_ie_grp_call_ref(ptr noundef %0, ptr noundef %1, ptr noundef %2, i32 noundef %3) unnamed_addr #0 {
  %5 = alloca ptr, align 8
  call void @llvm.lifetime.start.p0(i64 8, ptr nonnull %5) #6
  %6 = tail call zeroext i8 @tvb_get_uint8(ptr noundef %0, i32 noundef %3)
  %.not = icmp eq i8 %6, 47
  br i1 %.not, label %7, label %24

7:                                                ; preds = %4
  %8 = load i32, ptr @ett_ie_grp_call_ref, align 4
  %9 = call ptr @proto_tree_add_subtree(ptr noundef %2, ptr noundef %0, i32 noundef %3, i32 noundef 0, i32 noundef %8, ptr noundef nonnull %5, ptr noundef nonnull @.str.794)
  %10 = load i32, ptr @hf_rsl_ie_id, align 4
  %11 = call ptr @proto_tree_add_item(ptr noundef %9, i32 noundef %10, ptr noundef %0, i32 noundef %3, i32 noundef 1, i32 noundef 0)
  %12 = add i32 %3, 1
  %13 = call zeroext i8 @tvb_get_uint8(ptr noundef %0, i32 noundef %12)
  %14 = zext i8 %13 to i32
  %15 = load ptr, ptr %5, align 8
  %16 = add nuw nsw i32 %14, 2
  call void @proto_item_set_len(ptr noundef %15, i32 noundef %16)
  %17 = load i32, ptr @hf_rsl_ie_length, align 4
  %18 = call ptr @proto_tree_add_item(ptr noundef %9, i32 noundef %17, ptr noundef %0, i32 noundef %12, i32 noundef 1, i32 noundef 0)
  %19 = add i32 %3, 2
  %20 = load i32, ptr @hf_rsl_descriptive_group_or_broadcast_call_reference, align 4
  %21 = call ptr @proto_tree_add_item(ptr noundef %9, i32 noundef %20, ptr noundef %0, i32 noundef %19, i32 noundef %14, i32 noundef 0)
  %22 = call zeroext i16 @de_d_gb_call_ref(ptr noundef %0, ptr noundef %9, ptr noundef %1, i32 noundef %19, i32 noundef %14, ptr noundef null, i32 noundef 0)
  %23 = add i32 %19, %14
  br label %24

24:                                               ; preds = %4, %7
  %.0 = phi i32 [ %23, %7 ], [ %3, %4 ]
  call void @llvm.lifetime.end.p0(i64 8, ptr nonnull %5) #6
  ret i32 %.0
}